target datalayout = "e-m:e-p270:32:32-p271:32:32-p272:64:64-i64:64-i128:128-f80:128-n8:16:32:64-S128"
target triple = "x86_64-pc-linux-gnu"

%struct.llhttp__internal_s = type { i32, ptr, ptr, i32, ptr, ptr, ptr, ptr, i64, i8, i8, i8, i8, i8, i16, i8, i8, i16, i16, i8, ptr }

@stderr = external global ptr, align 8
@.str.193 = private unnamed_addr constant [44 x i8] c"p=%p type=%d flags=%02x next=null debug=%s\0A\00", align 1
@.str.194 = private unnamed_addr constant [46 x i8] c"p=%p type=%d flags=%02x next=%02x   debug=%s\0A\00", align 1

; Function Attrs: nounwind uwtable
define void @llhttp__debug(ptr noundef %0, ptr noundef %1, ptr noundef %2, ptr noundef %3) #0 {
  %5 = alloca ptr, align 8
  %6 = alloca ptr, align 8
  %7 = alloca ptr, align 8
  %8 = alloca ptr, align 8
  store ptr %0, ptr %5, align 8, !tbaa !3
  store ptr %1, ptr %6, align 8, !tbaa !27
  store ptr %2, ptr %7, align 8, !tbaa !27
  store ptr %3, ptr %8, align 8, !tbaa !27
  %9 = load ptr, ptr %6, align 8, !tbaa !27
  %10 = load ptr, ptr %7, align 8, !tbaa !27
  %11 = icmp eq ptr %9, %10
  br i1 %11, label %12, label %25

12:                                               ; preds = %4
  %13 = load ptr, ptr @stderr, align 8, !tbaa !57
  %14 = load ptr, ptr %5, align 8, !tbaa !3
  %15 = load ptr, ptr %5, align 8, !tbaa !3
  %16 = getelementptr inbounds nuw %struct.llhttp__internal_s, ptr %15, i32 0, i32 9
  %17 = load i8, ptr %16, align 8, !tbaa !12
  %18 = zext i8 %17 to i32
  %19 = load ptr, ptr %5, align 8, !tbaa !3
  %20 = getelementptr inbounds nuw %struct.llhttp__internal_s, ptr %19, i32 0, i32 17
  %21 = load i16, ptr %20, align 2, !tbaa !59
  %22 = zext i16 %21 to i32
  %23 = load ptr, ptr %8, align 8, !tbaa !27
  %24 = call i32 (ptr, ptr, ...) @fprintf(ptr noundef %13, ptr noundef @.str.193, ptr noundef %14, i32 noundef %18, i32 noundef %22, ptr noundef %23) #6
  br label %41

25:                                               ; preds = %4
  %26 = load ptr, ptr @stderr, align 8, !tbaa !57
  %27 = load ptr, ptr %5, align 8, !tbaa !3
  %28 = load ptr, ptr %5, align 8, !tbaa !3
  %29 = getelementptr inbounds nuw %struct.llhttp__internal_s, ptr %28, i32 0, i32 9
  %30 = load i8, ptr %29, align 8, !tbaa !12
  %31 = zext i8 %30 to i32
  %32 = load ptr, ptr %5, align 8, !tbaa !3
  %33 = getelementptr inbounds nuw %struct.llhttp__internal_s, ptr %32, i32 0, i32 17
  %34 = load i16, ptr %33, align 2, !tbaa !59
  %35 = zext i16 %34 to i32
  %36 = load ptr, ptr %6, align 8, !tbaa !27
  %37 = load i8, ptr %36, align 1, !tbaa !60
  %38 = sext i8 %37 to i32
  %39 = load ptr, ptr %8, align 8, !tbaa !27
  %40 = call i32 (ptr, ptr, ...) @fprintf(ptr noundef %26, ptr noundef @.str.194, ptr noundef %27, i32 noundef %31, i32 noundef %35, i32 noundef %38, ptr noundef %39) #6
  br label %41

41:                                               ; preds = %25, %12
  ret void
}