; Function Attrs: cold nofree nounwind uwtable
define void @llhttp__debug(ptr noundef %0, ptr noundef readonly %1, ptr noundef readnone %2, ptr noundef %3) local_unnamed_addr #8 {
  %5 = icmp eq ptr %1, %2
  %6 = load ptr, ptr @stderr, align 8, !tbaa !48
  %7 = getelementptr inbounds nuw i8, ptr %0, i64 72
  %8 = load i8, ptr %7, align 8, !tbaa !3
  %9 = zext i8 %8 to i32
  %10 = getelementptr inbounds nuw i8, ptr %0, i64 82
  %11 = load i16, ptr %10, align 2, !tbaa !50
  %12 = zext i16 %11 to i32
  br i1 %5, label %13, label %15

13:                                               ; preds = %4
  %14 = tail call i32 (ptr, ptr, ...) @fprintf(ptr noundef %6, ptr noundef nonnull @.str.193, ptr noundef %0, i32 noundef %9, i32 noundef %12, ptr noundef %3) #12
  br label %19

15:                                               ; preds = %4
  %16 = load i8, ptr %1, align 1, !tbaa !51
  %17 = sext i8 %16 to i32
  %18 = tail call i32 (ptr, ptr, ...) @fprintf(ptr noundef %6, ptr noundef nonnull @.str.194, ptr noundef %0, i32 noundef %9, i32 noundef %12, i32 noundef %17, ptr noundef %3) #12
  br label %19

19:                                               ; preds = %15, %13
  ret void
}